; Function Attrs: mustprogress uwtable
define dso_local void @_ZN11V3LexerBase12yy_pop_stateEv(ptr noundef nonnull align 8 dereferenceable(732) %0) local_unnamed_addr #4 align 2 {
  %2 = getelementptr inbounds i8, ptr %0, i64 28
  %3 = load i32, ptr %2, align 4
  %4 = add nsw i32 %3, -1
  store i32 %4, ptr %2, align 4
  %5 = icmp slt i32 %3, 1
  br i1 %5, label %6, label %10

6:                                                ; preds = %1
  %7 = load ptr, ptr %0, align 8
  %8 = getelementptr inbounds i8, ptr %7, i64 112
  %9 = load ptr, ptr %8, align 8
  tail call void %9(ptr noundef nonnull align 8 dereferenceable(732) %0, ptr noundef nonnull @.str.31)
  %.pre = load i32, ptr %2, align 4
  br label %10

10:                                               ; preds = %6, %1
  %11 = phi i32 [ %.pre, %6 ], [ %4, %1 ]
  %12 = getelementptr inbounds i8, ptr %0, i64 40
  %13 = load ptr, ptr %12, align 8
  %14 = sext i32 %11 to i64
  %15 = getelementptr inbounds i32, ptr %13, i64 %14
  %16 = load i32, ptr %15, align 4
  %17 = shl nsw i32 %16, 1
  %18 = or disjoint i32 %17, 1
  %19 = getelementptr inbounds i8, ptr %0, i64 620
  store i32 %18, ptr %19, align 4
  ret void
}